#include <math.h>
#include <stdio.h>
#include <stdlib.h>
#include <string.h>

int main(){
	int n;
	scanf("%d",&n);
	char suoyou[1000][256];
	int i=0;
	for(i=0;i<n+1;i++){
		gets(suoyou[i]);
	}
	int k=0;
	for(i=0;i<n+1;i++){
		for(k=0;k<strlen(suoyou[i]);k++){
			if(suoyou[i][k]==65){
				suoyou[i][k]=84;
			}else if(suoyou[i][k]==84){
				suoyou[i][k]=65;
			}else if(suoyou[i][k]==67){
				suoyou[i][k]=71;
			}else{
				suoyou[i][k]=67;
			}
		}
	}
	for(i=0;i<n+1;i++){
		printf("%s\n",suoyou[i]);
	}
	return 0;
}